; ModuleID = 'source-C-CXX/48/173.cpp'
source_filename = "source-C-CXX/48/173.cpp"
target datalayout = "e-m:e-p270:32:32-p271:32:32-p272:64:64-i64:64-f80:128-n8:16:32:64-S128"
target triple = "x86_64-pc-linux-gnu"

%"class.std::ios_base::Init" = type { i8 }
%"class.std::basic_ostream" = type { i32 (...)**, %"class.std::basic_ios" }
%"class.std::basic_ios" = type { %"class.std::ios_base", %"class.std::basic_ostream"*, i8, i8, %"class.std::basic_streambuf"*, %"class.std::ctype"*, %"class.std::num_put"*, %"class.std::num_get"* }
%"class.std::ios_base" = type { i32 (...)**, i64, i64, i32, i32, i32, %"struct.std::ios_base::_Callback_list"*, %"struct.std::ios_base::_Words", [8 x %"struct.std::ios_base::_Words"], i32, %"struct.std::ios_base::_Words"*, %"class.std::locale" }
%"struct.std::ios_base::_Callback_list" = type { %"struct.std::ios_base::_Callback_list"*, void (i32, %"class.std::ios_base"*, i32)*, i32, i32 }
%"struct.std::ios_base::_Words" = type { i8*, i64 }
%"class.std::locale" = type { %"class.std::locale::_Impl"* }
%"class.std::locale::_Impl" = type { i32, %"class.std::locale::facet"**, i64, %"class.std::locale::facet"**, i8** }
%"class.std::locale::facet" = type <{ i32 (...)**, i32, [4 x i8] }>
%"class.std::basic_streambuf" = type { i32 (...)**, i8*, i8*, i8*, i8*, i8*, i8*, %"class.std::locale" }
%"class.std::ctype" = type <{ %"class.std::locale::facet.base", [4 x i8], %struct.__locale_struct*, i8, [7 x i8], i32*, i32*, i16*, i8, [256 x i8], [256 x i8], i8, [6 x i8] }>
%"class.std::locale::facet.base" = type <{ i32 (...)**, i32 }>
%struct.__locale_struct = type { [13 x %struct.__locale_data*], i16*, i32*, i32*, [13 x i8*] }
%struct.__locale_data = type opaque
%"class.std::num_put" = type { %"class.std::locale::facet.base", [4 x i8] }
%"class.std::num_get" = type { %"class.std::locale::facet.base", [4 x i8] }
%"class.std::basic_istream" = type { i32 (...)**, i64, %"class.std::basic_ios" }

@_ZStL8__ioinit = internal global %"class.std::ios_base::Init" zeroinitializer, align 1
@__dso_handle = external hidden global i8
@len = dso_local local_unnamed_addr global i32 0, align 4
@_ZSt4cout = external global %"class.std::basic_ostream", align 8
@_ZSt3cin = external global %"class.std::basic_istream", align 8
@llvm.global_ctors = appending global [1 x { i32, void ()*, i8* }] [{ i32, void ()*, i8* } { i32 65535, void ()* @_GLOBAL__sub_I_173.cpp, i8* null }]

declare void @_ZNSt8ios_base4InitC1Ev(%"class.std::ios_base::Init"* nonnull align 1 dereferenceable(1)) unnamed_addr #0

; Function Attrs: nounwind
declare void @_ZNSt8ios_base4InitD1Ev(%"class.std::ios_base::Init"* nonnull align 1 dereferenceable(1)) unnamed_addr #1

; Function Attrs: nofree nounwind
declare i32 @__cxa_atexit(void (i8*)*, i8*, i8*) local_unnamed_addr #2

; Function Attrs: mustprogress sspstrong uwtable
define dso_local void @_Z10palindromePci(i8* nocapture readonly %0, i32 %1) local_unnamed_addr #3 {
  %3 = alloca i8, align 1
  %4 = sdiv i32 %1, 2
  %5 = load i32, i32* @len, align 4, !tbaa !5
  %6 = icmp slt i32 %5, %1
  br i1 %6, label %124, label %7

7:                                                ; preds = %2
  %8 = icmp slt i32 %1, 2
  br i1 %8, label %13, label %9

9:                                                ; preds = %7
  %10 = add nsw i32 %4, 1
  %11 = zext i32 %1 to i64
  %12 = zext i32 %10 to i64
  br label %59

13:                                               ; preds = %7
  %14 = icmp eq i32 %1, 1
  br label %15

15:                                               ; preds = %13, %42
  %16 = phi i64 [ 0, %13 ], [ %50, %42 ]
  %17 = phi i32 [ 0, %13 ], [ %46, %42 ]
  %18 = add nsw i32 %17, %1
  br i1 %14, label %51, label %19

19:                                               ; preds = %51, %15
  %20 = load i8*, i8** bitcast (%"class.std::basic_ostream"* @_ZSt4cout to i8**), align 8, !tbaa !9
  %21 = getelementptr i8, i8* %20, i64 -24
  %22 = bitcast i8* %21 to i64*
  %23 = load i64, i64* %22, align 8
  %24 = add nsw i64 %23, 240
  %25 = getelementptr inbounds i8, i8* bitcast (%"class.std::basic_ostream"* @_ZSt4cout to i8*), i64 %24
  %26 = bitcast i8* %25 to %"class.std::ctype"**
  %27 = load %"class.std::ctype"*, %"class.std::ctype"** %26, align 8, !tbaa !11
  %28 = icmp eq %"class.std::ctype"* %27, null
  br i1 %28, label %99, label %29

29:                                               ; preds = %19
  %30 = getelementptr inbounds %"class.std::ctype", %"class.std::ctype"* %27, i64 0, i32 8
  %31 = load i8, i8* %30, align 8, !tbaa !15
  %32 = icmp eq i8 %31, 0
  br i1 %32, label %36, label %33

33:                                               ; preds = %29
  %34 = getelementptr inbounds %"class.std::ctype", %"class.std::ctype"* %27, i64 0, i32 9, i64 10
  %35 = load i8, i8* %34, align 1, !tbaa !17
  br label %42

36:                                               ; preds = %29
  call void @_ZNKSt5ctypeIcE13_M_widen_initEv(%"class.std::ctype"* nonnull align 8 dereferenceable(570) %27)
  %37 = bitcast %"class.std::ctype"* %27 to i8 (%"class.std::ctype"*, i8)***
  %38 = load i8 (%"class.std::ctype"*, i8)**, i8 (%"class.std::ctype"*, i8)*** %37, align 8, !tbaa !9
  %39 = getelementptr inbounds i8 (%"class.std::ctype"*, i8)*, i8 (%"class.std::ctype"*, i8)** %38, i64 6
  %40 = load i8 (%"class.std::ctype"*, i8)*, i8 (%"class.std::ctype"*, i8)** %39, align 8
  %41 = call signext i8 %40(%"class.std::ctype"* nonnull align 8 dereferenceable(570) %27, i8 signext 10)
  br label %42

42:                                               ; preds = %36, %33
  %43 = phi i8 [ %35, %33 ], [ %41, %36 ]
  %44 = call nonnull align 8 dereferenceable(8) %"class.std::basic_ostream"* @_ZNSo3putEc(%"class.std::basic_ostream"* nonnull align 8 dereferenceable(8) @_ZSt4cout, i8 signext %43)
  %45 = call nonnull align 8 dereferenceable(8) %"class.std::basic_ostream"* @_ZNSo5flushEv(%"class.std::basic_ostream"* nonnull align 8 dereferenceable(8) %44)
  %46 = add nuw nsw i32 %17, 1
  %47 = load i32, i32* @len, align 4, !tbaa !5
  %48 = sub nsw i32 %47, %1
  %49 = icmp slt i32 %17, %48
  %50 = add nuw nsw i64 %16, 1
  br i1 %49, label %15, label %124, !llvm.loop !18

51:                                               ; preds = %15, %51
  %52 = phi i64 [ %56, %51 ], [ %16, %15 ]
  %53 = getelementptr inbounds i8, i8* %0, i64 %52
  %54 = load i8, i8* %53, align 1, !tbaa !17
  call void @llvm.lifetime.start.p0i8(i64 1, i8* nonnull %3)
  store i8 %54, i8* %3, align 1, !tbaa !17
  %55 = call nonnull align 8 dereferenceable(8) %"class.std::basic_ostream"* @_ZSt16__ostream_insertIcSt11char_traitsIcEERSt13basic_ostreamIT_T0_ES6_PKS3_l(%"class.std::basic_ostream"* nonnull align 8 dereferenceable(8) @_ZSt4cout, i8* nonnull %3, i64 1)
  call void @llvm.lifetime.end.p0i8(i64 1, i8* nonnull %3)
  %56 = add nuw nsw i64 %52, 1
  %57 = trunc i64 %56 to i32
  %58 = icmp sgt i32 %18, %57
  br i1 %58, label %51, label %19, !llvm.loop !20

59:                                               ; preds = %9, %118
  %60 = phi i32 [ %5, %9 ], [ %119, %118 ]
  %61 = phi i64 [ 0, %9 ], [ %120, %118 ]
  %62 = add nuw i64 %61, 4294967295
  %63 = add nuw nsw i64 %61, %11
  br label %67

64:                                               ; preds = %67
  %65 = add nuw nsw i64 %68, 1
  %66 = icmp eq i64 %65, %12
  br i1 %66, label %80, label %67, !llvm.loop !21

67:                                               ; preds = %59, %64
  %68 = phi i64 [ 1, %59 ], [ %65, %64 ]
  %69 = add i64 %62, %68
  %70 = shl i64 %69, 32
  %71 = ashr exact i64 %70, 32
  %72 = getelementptr inbounds i8, i8* %0, i64 %71
  %73 = load i8, i8* %72, align 1, !tbaa !17
  %74 = sub nsw i64 %63, %68
  %75 = shl i64 %74, 32
  %76 = ashr exact i64 %75, 32
  %77 = getelementptr inbounds i8, i8* %0, i64 %76
  %78 = load i8, i8* %77, align 1, !tbaa !17
  %79 = icmp eq i8 %73, %78
  br i1 %79, label %64, label %118

80:                                               ; preds = %64, %80
  %81 = phi i64 [ %85, %80 ], [ %61, %64 ]
  %82 = getelementptr inbounds i8, i8* %0, i64 %81
  %83 = load i8, i8* %82, align 1, !tbaa !17
  call void @llvm.lifetime.start.p0i8(i64 1, i8* nonnull %3)
  store i8 %83, i8* %3, align 1, !tbaa !17
  %84 = call nonnull align 8 dereferenceable(8) %"class.std::basic_ostream"* @_ZSt16__ostream_insertIcSt11char_traitsIcEERSt13basic_ostreamIT_T0_ES6_PKS3_l(%"class.std::basic_ostream"* nonnull align 8 dereferenceable(8) @_ZSt4cout, i8* nonnull %3, i64 1)
  call void @llvm.lifetime.end.p0i8(i64 1, i8* nonnull %3)
  %85 = add nuw nsw i64 %81, 1
  %86 = shl i64 %85, 32
  %87 = ashr exact i64 %86, 32
  %88 = icmp slt i64 %87, %63
  br i1 %88, label %80, label %89, !llvm.loop !20

89:                                               ; preds = %80
  %90 = load i8*, i8** bitcast (%"class.std::basic_ostream"* @_ZSt4cout to i8**), align 8, !tbaa !9
  %91 = getelementptr i8, i8* %90, i64 -24
  %92 = bitcast i8* %91 to i64*
  %93 = load i64, i64* %92, align 8
  %94 = add nsw i64 %93, 240
  %95 = getelementptr inbounds i8, i8* bitcast (%"class.std::basic_ostream"* @_ZSt4cout to i8*), i64 %94
  %96 = bitcast i8* %95 to %"class.std::ctype"**
  %97 = load %"class.std::ctype"*, %"class.std::ctype"** %96, align 8, !tbaa !11
  %98 = icmp eq %"class.std::ctype"* %97, null
  br i1 %98, label %99, label %100

99:                                               ; preds = %89, %19
  call void @_ZSt16__throw_bad_castv() #9
  unreachable

100:                                              ; preds = %89
  %101 = getelementptr inbounds %"class.std::ctype", %"class.std::ctype"* %97, i64 0, i32 8
  %102 = load i8, i8* %101, align 8, !tbaa !15
  %103 = icmp eq i8 %102, 0
  br i1 %103, label %107, label %104

104:                                              ; preds = %100
  %105 = getelementptr inbounds %"class.std::ctype", %"class.std::ctype"* %97, i64 0, i32 9, i64 10
  %106 = load i8, i8* %105, align 1, !tbaa !17
  br label %113

107:                                              ; preds = %100
  call void @_ZNKSt5ctypeIcE13_M_widen_initEv(%"class.std::ctype"* nonnull align 8 dereferenceable(570) %97)
  %108 = bitcast %"class.std::ctype"* %97 to i8 (%"class.std::ctype"*, i8)***
  %109 = load i8 (%"class.std::ctype"*, i8)**, i8 (%"class.std::ctype"*, i8)*** %108, align 8, !tbaa !9
  %110 = getelementptr inbounds i8 (%"class.std::ctype"*, i8)*, i8 (%"class.std::ctype"*, i8)** %109, i64 6
  %111 = load i8 (%"class.std::ctype"*, i8)*, i8 (%"class.std::ctype"*, i8)** %110, align 8
  %112 = call signext i8 %111(%"class.std::ctype"* nonnull align 8 dereferenceable(570) %97, i8 signext 10)
  br label %113

113:                                              ; preds = %104, %107
  %114 = phi i8 [ %106, %104 ], [ %112, %107 ]
  %115 = call nonnull align 8 dereferenceable(8) %"class.std::basic_ostream"* @_ZNSo3putEc(%"class.std::basic_ostream"* nonnull align 8 dereferenceable(8) @_ZSt4cout, i8 signext %114)
  %116 = call nonnull align 8 dereferenceable(8) %"class.std::basic_ostream"* @_ZNSo5flushEv(%"class.std::basic_ostream"* nonnull align 8 dereferenceable(8) %115)
  %117 = load i32, i32* @len, align 4, !tbaa !5
  br label %118

118:                                              ; preds = %67, %113
  %119 = phi i32 [ %117, %113 ], [ %60, %67 ]
  %120 = add nuw nsw i64 %61, 1
  %121 = sub nsw i32 %119, %1
  %122 = sext i32 %121 to i64
  %123 = icmp slt i64 %61, %122
  br i1 %123, label %59, label %124, !llvm.loop !18

124:                                              ; preds = %118, %42, %2
  ret void
}

; Function Attrs: argmemonly mustprogress nofree nosync nounwind willreturn
declare void @llvm.lifetime.start.p0i8(i64 immarg, i8* nocapture) #4

; Function Attrs: argmemonly mustprogress nofree nosync nounwind willreturn
declare void @llvm.lifetime.end.p0i8(i64 immarg, i8* nocapture) #4

; Function Attrs: mustprogress norecurse sspstrong uwtable
define dso_local i32 @main() local_unnamed_addr #5 {
  %1 = alloca [501 x i8], align 16
  %2 = getelementptr inbounds [501 x i8], [501 x i8]* %1, i64 0, i64 0
  call void @llvm.lifetime.start.p0i8(i64 501, i8* nonnull %2) #10
  call void @_ZSt17__istream_extractRSiPcl(%"class.std::basic_istream"* nonnull align 8 dereferenceable(16) @_ZSt3cin, i8* nonnull %2, i64 501)
  %3 = call i64 @strlen(i8* noundef nonnull %2) #11
  %4 = trunc i64 %3 to i32
  store i32 %4, i32* @len, align 4, !tbaa !5
  %5 = icmp slt i32 %4, 2
  br i1 %5, label %11, label %6

6:                                                ; preds = %0, %6
  %7 = phi i32 [ %8, %6 ], [ 2, %0 ]
  call void @_Z10palindromePci(i8* nonnull %2, i32 %7)
  %8 = add nuw nsw i32 %7, 1
  %9 = load i32, i32* @len, align 4, !tbaa !5
  %10 = icmp slt i32 %7, %9
  br i1 %10, label %6, label %11, !llvm.loop !22

11:                                               ; preds = %6, %0
  call void @llvm.lifetime.end.p0i8(i64 501, i8* nonnull %2) #10
  ret i32 0
}

; Function Attrs: argmemonly mustprogress nofree nounwind readonly willreturn
declare i64 @strlen(i8* nocapture) local_unnamed_addr #6

declare nonnull align 8 dereferenceable(8) %"class.std::basic_ostream"* @_ZSt16__ostream_insertIcSt11char_traitsIcEERSt13basic_ostreamIT_T0_ES6_PKS3_l(%"class.std::basic_ostream"* nonnull align 8 dereferenceable(8), i8*, i64) local_unnamed_addr #0

declare nonnull align 8 dereferenceable(8) %"class.std::basic_ostream"* @_ZNSo3putEc(%"class.std::basic_ostream"* nonnull align 8 dereferenceable(8), i8 signext) local_unnamed_addr #0

declare nonnull align 8 dereferenceable(8) %"class.std::basic_ostream"* @_ZNSo5flushEv(%"class.std::basic_ostream"* nonnull align 8 dereferenceable(8)) local_unnamed_addr #0

; Function Attrs: noreturn
declare void @_ZSt16__throw_bad_castv() local_unnamed_addr #7

declare void @_ZNKSt5ctypeIcE13_M_widen_initEv(%"class.std::ctype"* nonnull align 8 dereferenceable(570)) local_unnamed_addr #0

declare void @_ZSt17__istream_extractRSiPcl(%"class.std::basic_istream"* nonnull align 8 dereferenceable(16), i8*, i64) local_unnamed_addr #0

; Function Attrs: sspstrong uwtable
define internal void @_GLOBAL__sub_I_173.cpp() #8 section ".text.startup" {
  tail call void @_ZNSt8ios_base4InitC1Ev(%"class.std::ios_base::Init"* nonnull align 1 dereferenceable(1) @_ZStL8__ioinit)
  %1 = tail call i32 @__cxa_atexit(void (i8*)* bitcast (void (%"class.std::ios_base::Init"*)* @_ZNSt8ios_base4InitD1Ev to void (i8*)*), i8* getelementptr inbounds (%"class.std::ios_base::Init", %"class.std::ios_base::Init"* @_ZStL8__ioinit, i64 0, i32 0), i8* nonnull @__dso_handle) #10
  ret void
}


!llvm.module.flags = !{!0, !1, !2, !3}
!llvm.ident = !{!4}

!0 = !{i32 1, !"wchar_size", i32 4}
!1 = !{i32 7, !"PIC Level", i32 2}
!2 = !{i32 7, !"PIE Level", i32 2}
!3 = !{i32 7, !"uwtable", i32 1}
!4 = !{!"clang version 13.0.0"}
!5 = !{!6, !6, i64 0}
!6 = !{!"int", !7, i64 0}
!7 = !{!"omnipotent char", !8, i64 0}
!8 = !{!"Simple C++ TBAA"}
!9 = !{!10, !10, i64 0}
!10 = !{!"vtable pointer", !8, i64 0}
!11 = !{!12, !13, i64 240}
!12 = !{!"_ZTSSt9basic_iosIcSt11char_traitsIcEE", !13, i64 216, !7, i64 224, !14, i64 225, !13, i64 232, !13, i64 240, !13, i64 248, !13, i64 256}
!13 = !{!"any pointer", !7, i64 0}
!14 = !{!"bool", !7, i64 0}
!15 = !{!16, !7, i64 56}
!16 = !{!"_ZTSSt5ctypeIcE", !13, i64 16, !14, i64 24, !13, i64 32, !13, i64 40, !13, i64 48, !7, i64 56, !7, i64 57, !7, i64 313, !7, i64 569}
!17 = !{!7, !7, i64 0}
!18 = distinct !{!18, !19}
!19 = !{!"llvm.loop.mustprogress"}
!20 = distinct !{!20, !19}
!21 = distinct !{!21, !19}
!22 = distinct !{!22, !19}
